; Function Attrs: mustprogress nounwind uwtable
define internal void @_ZNK12_GLOBAL__N_116VariadicArgument30writeTemplateInstantiationArgsERN4llvm11raw_ostreamE(ptr noundef nonnull align 8 dereferenceable(224) %0, ptr noundef nonnull align 8 dereferenceable(48) %1) unnamed_addr #0 align 2 {
  %3 = getelementptr inbounds nuw i8, ptr %1, i64 24
  %4 = load ptr, ptr %3, align 8
  %5 = getelementptr inbounds nuw i8, ptr %1, i64 32
  %6 = load ptr, ptr %5, align 8
  %7 = ptrtoint ptr %4 to i64
  %8 = ptrtoint ptr %6 to i64
  %9 = sub i64 %7, %8
  %10 = icmp ult i64 %9, 3
  br i1 %10, label %11, label %13

11:                                               ; preds = %2
  %12 = tail call noundef nonnull align 8 dereferenceable(48) ptr @_ZN4llvm11raw_ostream5writeEPKcm(ptr noundef nonnull align 8 dereferenceable(48) %1, ptr noundef nonnull @.str.809, i64 noundef 3) #22
  br label %_ZN4llvm11raw_ostreamlsEPKc.exit

13:                                               ; preds = %2
  tail call void @llvm.memcpy.p0.p0.i64(ptr noundef nonnull align 1 dereferenceable(3) %6, ptr noundef nonnull align 1 dereferenceable(3) @.str.809, i64 3, i1 false)
  %14 = load ptr, ptr %5, align 8
  %15 = getelementptr inbounds i8, ptr %14, i64 3
  store ptr %15, ptr %5, align 8
  br label %_ZN4llvm11raw_ostreamlsEPKc.exit

_ZN4llvm11raw_ostreamlsEPKc.exit:                 ; preds = %11, %13
  %.0.i.i = phi ptr [ %12, %11 ], [ %1, %13 ]
  %16 = getelementptr inbounds nuw i8, ptr %0, i64 8
  %17 = tail call noundef ptr @_ZNKSt7__cxx1112basic_stringIcSt11char_traitsIcESaIcEE4dataEv(ptr noundef nonnull align 8 dereferenceable(32) %16) #22
  %18 = tail call noundef i64 @_ZNKSt7__cxx1112basic_stringIcSt11char_traitsIcESaIcEE6lengthEv(ptr noundef nonnull align 8 dereferenceable(32) %16) #22
  %19 = getelementptr inbounds nuw i8, ptr %.0.i.i, i64 24
  %20 = load ptr, ptr %19, align 8
  %21 = getelementptr inbounds nuw i8, ptr %.0.i.i, i64 32
  %22 = load ptr, ptr %21, align 8
  %23 = ptrtoint ptr %20 to i64
  %24 = ptrtoint ptr %22 to i64
  %25 = sub i64 %23, %24
  %26 = icmp ugt i64 %18, %25
  br i1 %26, label %27, label %29

27:                                               ; preds = %_ZN4llvm11raw_ostreamlsEPKc.exit
  %28 = tail call noundef nonnull align 8 dereferenceable(48) ptr @_ZN4llvm11raw_ostream5writeEPKcm(ptr noundef nonnull align 8 dereferenceable(48) %.0.i.i, ptr noundef %17, i64 noundef %18) #22
  %.phi.trans.insert = getelementptr inbounds nuw i8, ptr %28, i64 32
  %.pre = load ptr, ptr %.phi.trans.insert, align 8
  br label %_ZN4llvm11raw_ostreamlsENS_9StringRefE.exit

29:                                               ; preds = %_ZN4llvm11raw_ostreamlsEPKc.exit
  %.not.i = icmp eq i64 %18, 0
  br i1 %.not.i, label %_ZN4llvm11raw_ostreamlsENS_9StringRefE.exit, label %30

30:                                               ; preds = %29
  tail call void @llvm.memcpy.p0.p0.i64(ptr align 1 %22, ptr align 1 %17, i64 %18, i1 false)
  %31 = load ptr, ptr %21, align 8
  %32 = getelementptr inbounds i8, ptr %31, i64 %18
  store ptr %32, ptr %21, align 8
  br label %_ZN4llvm11raw_ostreamlsENS_9StringRefE.exit

_ZN4llvm11raw_ostreamlsENS_9StringRefE.exit:      ; preds = %27, %29, %30
  %33 = phi ptr [ %.pre, %27 ], [ %32, %30 ], [ %22, %29 ]
  %.0.i = phi ptr [ %28, %27 ], [ %.0.i.i, %30 ], [ %.0.i.i, %29 ]
  %34 = getelementptr inbounds nuw i8, ptr %.0.i, i64 24
  %35 = load ptr, ptr %34, align 8
  %36 = ptrtoint ptr %35 to i64
  %37 = ptrtoint ptr %33 to i64
  %38 = sub i64 %36, %37
  %39 = icmp ult i64 %38, 10
  br i1 %39, label %40, label %42

40:                                               ; preds = %_ZN4llvm11raw_ostreamlsENS_9StringRefE.exit
  %41 = tail call noundef nonnull align 8 dereferenceable(48) ptr @_ZN4llvm11raw_ostream5writeEPKcm(ptr noundef nonnull align 8 dereferenceable(48) %.0.i, ptr noundef nonnull @.str.810, i64 noundef 10) #22
  %.phi.trans.insert18 = getelementptr inbounds nuw i8, ptr %41, i64 32
  %.pre19 = load ptr, ptr %.phi.trans.insert18, align 8
  br label %_ZN4llvm11raw_ostreamlsEPKc.exit6

42:                                               ; preds = %_ZN4llvm11raw_ostreamlsENS_9StringRefE.exit
  %43 = getelementptr inbounds nuw i8, ptr %.0.i, i64 32
  tail call void @llvm.memcpy.p0.p0.i64(ptr noundef nonnull align 1 dereferenceable(10) %33, ptr noundef nonnull align 1 dereferenceable(10) @.str.810, i64 10, i1 false)
  %44 = load ptr, ptr %43, align 8
  %45 = getelementptr inbounds i8, ptr %44, i64 10
  store ptr %45, ptr %43, align 8
  br label %_ZN4llvm11raw_ostreamlsEPKc.exit6

_ZN4llvm11raw_ostreamlsEPKc.exit6:                ; preds = %40, %42
  %46 = phi ptr [ %.pre19, %40 ], [ %45, %42 ]
  %.0.i.i5 = phi ptr [ %41, %40 ], [ %.0.i, %42 ]
  %47 = getelementptr inbounds nuw i8, ptr %.0.i.i5, i64 24
  %48 = load ptr, ptr %47, align 8
  %49 = ptrtoint ptr %48 to i64
  %50 = ptrtoint ptr %46 to i64
  %51 = sub i64 %49, %50
  %52 = icmp ult i64 %51, 3
  br i1 %52, label %53, label %55

53:                                               ; preds = %_ZN4llvm11raw_ostreamlsEPKc.exit6
  %54 = tail call noundef nonnull align 8 dereferenceable(48) ptr @_ZN4llvm11raw_ostream5writeEPKcm(ptr noundef nonnull align 8 dereferenceable(48) %.0.i.i5, ptr noundef nonnull @.str.809, i64 noundef 3) #22
  br label %_ZN4llvm11raw_ostreamlsEPKc.exit9

55:                                               ; preds = %_ZN4llvm11raw_ostreamlsEPKc.exit6
  %56 = getelementptr inbounds nuw i8, ptr %.0.i.i5, i64 32
  tail call void @llvm.memcpy.p0.p0.i64(ptr noundef nonnull align 1 dereferenceable(3) %46, ptr noundef nonnull align 1 dereferenceable(3) @.str.809, i64 3, i1 false)
  %57 = load ptr, ptr %56, align 8
  %58 = getelementptr inbounds i8, ptr %57, i64 3
  store ptr %58, ptr %56, align 8
  br label %_ZN4llvm11raw_ostreamlsEPKc.exit9

_ZN4llvm11raw_ostreamlsEPKc.exit9:                ; preds = %53, %55
  %.0.i.i8 = phi ptr [ %54, %53 ], [ %.0.i.i5, %55 ]
  %59 = tail call noundef ptr @_ZNKSt7__cxx1112basic_stringIcSt11char_traitsIcESaIcEE4dataEv(ptr noundef nonnull align 8 dereferenceable(32) %16) #22
  %60 = tail call noundef i64 @_ZNKSt7__cxx1112basic_stringIcSt11char_traitsIcESaIcEE6lengthEv(ptr noundef nonnull align 8 dereferenceable(32) %16) #22
  %61 = getelementptr inbounds nuw i8, ptr %.0.i.i8, i64 24
  %62 = load ptr, ptr %61, align 8
  %63 = getelementptr inbounds nuw i8, ptr %.0.i.i8, i64 32
  %64 = load ptr, ptr %63, align 8
  %65 = ptrtoint ptr %62 to i64
  %66 = ptrtoint ptr %64 to i64
  %67 = sub i64 %65, %66
  %68 = icmp ugt i64 %60, %67
  br i1 %68, label %69, label %71

69:                                               ; preds = %_ZN4llvm11raw_ostreamlsEPKc.exit9
  %70 = tail call noundef nonnull align 8 dereferenceable(48) ptr @_ZN4llvm11raw_ostream5writeEPKcm(ptr noundef nonnull align 8 dereferenceable(48) %.0.i.i8, ptr noundef %59, i64 noundef %60) #22
  %.phi.trans.insert20 = getelementptr inbounds nuw i8, ptr %70, i64 32
  %.pre21 = load ptr, ptr %.phi.trans.insert20, align 8
  br label %_ZN4llvm11raw_ostreamlsENS_9StringRefE.exit14

71:                                               ; preds = %_ZN4llvm11raw_ostreamlsEPKc.exit9
  %.not.i12 = icmp eq i64 %60, 0
  br i1 %.not.i12, label %_ZN4llvm11raw_ostreamlsENS_9StringRefE.exit14, label %72

72:                                               ; preds = %71
  tail call void @llvm.memcpy.p0.p0.i64(ptr align 1 %64, ptr align 1 %59, i64 %60, i1 false)
  %73 = load ptr, ptr %63, align 8
  %74 = getelementptr inbounds i8, ptr %73, i64 %60
  store ptr %74, ptr %63, align 8
  br label %_ZN4llvm11raw_ostreamlsENS_9StringRefE.exit14

_ZN4llvm11raw_ostreamlsENS_9StringRefE.exit14:    ; preds = %69, %71, %72
  %75 = phi ptr [ %.pre21, %69 ], [ %74, %72 ], [ %64, %71 ]
  %.0.i13 = phi ptr [ %70, %69 ], [ %.0.i.i8, %72 ], [ %.0.i.i8, %71 ]
  %76 = getelementptr inbounds nuw i8, ptr %.0.i13, i64 24
  %77 = load ptr, ptr %76, align 8
  %78 = ptrtoint ptr %77 to i64
  %79 = ptrtoint ptr %75 to i64
  %80 = sub i64 %78, %79
  %81 = icmp ult i64 %80, 7
  br i1 %81, label %82, label %84

82:                                               ; preds = %_ZN4llvm11raw_ostreamlsENS_9StringRefE.exit14
  %83 = tail call noundef nonnull align 8 dereferenceable(48) ptr @_ZN4llvm11raw_ostream5writeEPKcm(ptr noundef nonnull align 8 dereferenceable(48) %.0.i13, ptr noundef nonnull @.str.811, i64 noundef 7) #22
  br label %_ZN4llvm11raw_ostreamlsEPKc.exit17

84:                                               ; preds = %_ZN4llvm11raw_ostreamlsENS_9StringRefE.exit14
  %85 = getelementptr inbounds nuw i8, ptr %.0.i13, i64 32
  tail call void @llvm.memcpy.p0.p0.i64(ptr noundef nonnull align 1 dereferenceable(7) %75, ptr noundef nonnull align 1 dereferenceable(7) @.str.811, i64 7, i1 false)
  %86 = load ptr, ptr %85, align 8
  %87 = getelementptr inbounds i8, ptr %86, i64 7
  store ptr %87, ptr %85, align 8
  br label %_ZN4llvm11raw_ostreamlsEPKc.exit17

_ZN4llvm11raw_ostreamlsEPKc.exit17:               ; preds = %82, %84
  ret void
}